target datalayout = "e-m:e-p270:32:32-p271:32:32-p272:64:64-i64:64-i128:128-f80:128-n8:16:32:64-S128"
target triple = "x86_64-pc-linux-gnu"

%struct.VP8Io = type { i32, i32, i32, i32, i32, ptr, ptr, ptr, i32, i32, ptr, ptr, ptr, ptr, i32, i64, ptr, i32, i32, i32, i32, i32, i32, i32, i32, i32, ptr }

; Function Attrs: nounwind uwtable
define hidden void @WebPInitCustomIo(ptr noundef %0, ptr noundef %1) #0 {
  %3 = alloca ptr, align 8
  %4 = alloca ptr, align 8
  store ptr %0, ptr %3, align 8, !tbaa !3
  store ptr %1, ptr %4, align 8, !tbaa !8
  %5 = load ptr, ptr %4, align 8, !tbaa !8
  %6 = getelementptr inbounds nuw %struct.VP8Io, ptr %5, i32 0, i32 11
  store ptr @CustomPut, ptr %6, align 8, !tbaa !10
  %7 = load ptr, ptr %4, align 8, !tbaa !8
  %8 = getelementptr inbounds nuw %struct.VP8Io, ptr %7, i32 0, i32 12
  store ptr @CustomSetup, ptr %8, align 8, !tbaa !15
  %9 = load ptr, ptr %4, align 8, !tbaa !8
  %10 = getelementptr inbounds nuw %struct.VP8Io, ptr %9, i32 0, i32 13
  store ptr @CustomTeardown, ptr %10, align 8, !tbaa !16
  %11 = load ptr, ptr %3, align 8, !tbaa !3
  %12 = load ptr, ptr %4, align 8, !tbaa !8
  %13 = getelementptr inbounds nuw %struct.VP8Io, ptr %12, i32 0, i32 10
  store ptr %11, ptr %13, align 8, !tbaa !17
  ret void
}