; Function Attrs: mustprogress nofree norecurse nosync nounwind willreturn memory(argmem: write) uwtable
define hidden void @WebPInitCustomIo(ptr noundef %0, ptr noundef writeonly captures(none) initializes((56, 88)) %1) local_unnamed_addr #0 {
  %3 = getelementptr inbounds nuw i8, ptr %1, i64 64
  store ptr @CustomPut, ptr %3, align 8, !tbaa !3
  %4 = getelementptr inbounds nuw i8, ptr %1, i64 72
  store ptr @CustomSetup, ptr %4, align 8, !tbaa !11
  %5 = getelementptr inbounds nuw i8, ptr %1, i64 80
  store ptr @CustomTeardown, ptr %5, align 8, !tbaa !12
  %6 = getelementptr inbounds nuw i8, ptr %1, i64 56
  store ptr %0, ptr %6, align 8, !tbaa !13
  ret void
}